; Function Attrs: nounwind uwtable
define ptr @l_Lake_instAddDeclFieldOfToLeanMkStr1OfConfigFieldOption___rarg(ptr noundef %0, ptr noundef %1, ptr noundef %2, ptr noundef %3, ptr noundef %4) #0 {
  %6 = getelementptr inbounds nuw i8, ptr %2, i64 8
  %7 = load ptr, ptr %6, align 8, !tbaa !12
  %8 = ptrtoint ptr %7 to i64
  %9 = and i64 %8, 1
  %.not = icmp eq i64 %9, 0
  br i1 %.not, label %10, label %lean_inc.exit22

10:                                               ; preds = %5
  %.val.i = load i32, ptr %7, align 4, !tbaa !8
  %11 = icmp sgt i32 %.val.i, 0
  br i1 %11, label %12, label %14, !prof !11

12:                                               ; preds = %10
  %13 = add nuw i32 %.val.i, 1
  store i32 %13, ptr %7, align 4, !tbaa !8
  br label %lean_inc.exit22

14:                                               ; preds = %10
  %.not.i29 = icmp eq i32 %.val.i, 0
  br i1 %.not.i29, label %lean_inc.exit22, label %15

15:                                               ; preds = %14
  tail call void @lean_inc_ref_cold(ptr noundef nonnull %7) #6
  br label %lean_inc.exit22

lean_inc.exit22:                                  ; preds = %15, %14, %12, %5
  %16 = ptrtoint ptr %2 to i64
  %17 = and i64 %16, 1
  %.not35 = icmp eq i64 %17, 0
  br i1 %.not35, label %18, label %lean_dec.exit21

18:                                               ; preds = %lean_inc.exit22
  %19 = load i32, ptr %2, align 4, !tbaa !8
  %20 = icmp sgt i32 %19, 1
  br i1 %20, label %21, label %23, !prof !11

21:                                               ; preds = %18
  %22 = add nsw i32 %19, -1
  store i32 %22, ptr %2, align 4, !tbaa !8
  br label %lean_dec.exit21

23:                                               ; preds = %18
  %.not.i = icmp eq i32 %19, 0
  br i1 %.not.i, label %lean_dec.exit21, label %24

24:                                               ; preds = %23
  tail call void @lean_dec_ref_cold(ptr noundef nonnull %2) #6
  br label %lean_dec.exit21

lean_dec.exit21:                                  ; preds = %24, %23, %21, %lean_inc.exit22
  %25 = tail call ptr @lean_apply_1(ptr noundef %7, ptr noundef %3) #6
  %26 = ptrtoint ptr %25 to i64
  %27 = and i64 %26, 1
  %.not.i30 = icmp eq i64 %27, 0
  br i1 %.not.i30, label %31, label %28

28:                                               ; preds = %lean_dec.exit21
  %29 = lshr i64 %26, 1
  %30 = trunc i64 %29 to i32
  br label %lean_obj_tag.exit

31:                                               ; preds = %lean_dec.exit21
  %32 = getelementptr i8, ptr %25, i64 4
  %.val.i31 = load i32, ptr %32, align 4
  %33 = lshr i32 %.val.i31, 24
  br label %lean_obj_tag.exit

lean_obj_tag.exit:                                ; preds = %28, %31
  %.0.i = phi i32 [ %30, %28 ], [ %33, %31 ]
  %34 = icmp eq i32 %.0.i, 0
  br i1 %34, label %35, label %54

35:                                               ; preds = %lean_obj_tag.exit
  %36 = ptrtoint ptr %1 to i64
  %37 = and i64 %36, 1
  %.not38 = icmp eq i64 %37, 0
  br i1 %.not38, label %38, label %lean_dec.exit20

38:                                               ; preds = %35
  %39 = load i32, ptr %1, align 4, !tbaa !8
  %40 = icmp sgt i32 %39, 1
  br i1 %40, label %41, label %43, !prof !11

41:                                               ; preds = %38
  %42 = add nsw i32 %39, -1
  store i32 %42, ptr %1, align 4, !tbaa !8
  br label %lean_dec.exit20

43:                                               ; preds = %38
  %.not.i23 = icmp eq i32 %39, 0
  br i1 %.not.i23, label %lean_dec.exit20, label %44

44:                                               ; preds = %43
  tail call void @lean_dec_ref_cold(ptr noundef nonnull %1) #6
  br label %lean_dec.exit20

lean_dec.exit20:                                  ; preds = %44, %43, %41, %35
  %45 = ptrtoint ptr %0 to i64
  %46 = and i64 %45, 1
  %.not39 = icmp eq i64 %46, 0
  br i1 %.not39, label %47, label %lean_dec.exit19

47:                                               ; preds = %lean_dec.exit20
  %48 = load i32, ptr %0, align 4, !tbaa !8
  %49 = icmp sgt i32 %48, 1
  br i1 %49, label %50, label %52, !prof !11

50:                                               ; preds = %47
  %51 = add nsw i32 %48, -1
  store i32 %51, ptr %0, align 4, !tbaa !8
  br label %lean_dec.exit19

52:                                               ; preds = %47
  %.not.i25 = icmp eq i32 %48, 0
  br i1 %.not.i25, label %lean_dec.exit19, label %53

53:                                               ; preds = %52
  tail call void @lean_dec_ref_cold(ptr noundef nonnull %0) #6
  br label %lean_dec.exit19

54:                                               ; preds = %lean_obj_tag.exit
  %55 = getelementptr inbounds nuw i8, ptr %25, i64 8
  %56 = load ptr, ptr %55, align 8, !tbaa !12
  %57 = ptrtoint ptr %56 to i64
  %58 = and i64 %57, 1
  %.not36 = icmp eq i64 %58, 0
  br i1 %.not36, label %59, label %lean_inc.exit

59:                                               ; preds = %54
  %.val.i32 = load i32, ptr %56, align 4, !tbaa !8
  %60 = icmp sgt i32 %.val.i32, 0
  br i1 %60, label %61, label %63, !prof !11

61:                                               ; preds = %59
  %62 = add nuw i32 %.val.i32, 1
  store i32 %62, ptr %56, align 4, !tbaa !8
  br label %lean_inc.exit

63:                                               ; preds = %59
  %.not.i33 = icmp eq i32 %.val.i32, 0
  br i1 %.not.i33, label %lean_inc.exit, label %64

64:                                               ; preds = %63
  tail call void @lean_inc_ref_cold(ptr noundef nonnull %56) #6
  br label %lean_inc.exit

lean_inc.exit:                                    ; preds = %64, %63, %61, %54
  br i1 %.not.i30, label %65, label %lean_dec.exit

65:                                               ; preds = %lean_inc.exit
  %66 = load i32, ptr %25, align 4, !tbaa !8
  %67 = icmp sgt i32 %66, 1
  br i1 %67, label %68, label %70, !prof !11

68:                                               ; preds = %65
  %69 = add nsw i32 %66, -1
  store i32 %69, ptr %25, align 4, !tbaa !8
  br label %lean_dec.exit

70:                                               ; preds = %65
  %.not.i27 = icmp eq i32 %66, 0
  br i1 %.not.i27, label %lean_dec.exit, label %71

71:                                               ; preds = %70
  tail call void @lean_dec_ref_cold(ptr noundef nonnull %25) #6
  br label %lean_dec.exit

lean_dec.exit:                                    ; preds = %71, %70, %68, %lean_inc.exit
  %72 = tail call ptr @lean_apply_1(ptr noundef %1, ptr noundef %56) #6
  %73 = tail call ptr @lean_mk_syntax_ident(ptr noundef %0) #6
  %74 = load ptr, ptr @l_Lake_instToLeanArrayMkStr1___rarg___closed__1, align 8, !tbaa !12
  %75 = load ptr, ptr @l_Lake_addDeclFieldCore___closed__4, align 8, !tbaa !12
  %76 = load ptr, ptr @l_Lake_addDeclFieldCore___closed__6, align 8, !tbaa !12
  %77 = tail call ptr @l_Lean_Syntax_node3(ptr noundef %74, ptr noundef %75, ptr noundef %73, ptr noundef %76, ptr noundef %72) #6
  %78 = tail call ptr @lean_array_push(ptr noundef %4, ptr noundef %77) #6
  br label %lean_dec.exit19

lean_dec.exit19:                                  ; preds = %lean_dec.exit20, %50, %52, %53, %lean_dec.exit
  %.0 = phi ptr [ %78, %lean_dec.exit ], [ %4, %53 ], [ %4, %52 ], [ %4, %50 ], [ %4, %lean_dec.exit20 ]
  ret ptr %.0
}